target datalayout = "e-m:e-p270:32:32-p271:32:32-p272:64:64-i64:64-i128:128-f80:128-n8:16:32:64-S128"
target triple = "x86_64-pc-linux-gnu"

%class.b3AlignedObjectArray.6 = type <{ [4 x i8], i32, i32, [4 x i8], ptr, i8, [7 x i8] }>
%class.b3HashMap.8 = type { %class.b3AlignedObjectArray, %class.b3AlignedObjectArray, %class.b3AlignedObjectArray.6, %class.b3AlignedObjectArray.2 }
%class.b3AlignedObjectArray = type <{ [4 x i8], i32, i32, [4 x i8], ptr, i8, [7 x i8] }>
%class.b3AlignedObjectArray.2 = type <{ [4 x i8], i32, i32, [4 x i8], ptr, i8, [7 x i8] }>
%class.b3HashMap = type { %class.b3AlignedObjectArray, %class.b3AlignedObjectArray, %class.b3AlignedObjectArray.0, %class.b3AlignedObjectArray.2 }
%class.b3AlignedObjectArray.0 = type <{ [4 x i8], i32, i32, [4 x i8], ptr, i8, [7 x i8] }>
%class.b3AlignedObjectArray.4 = type <{ [4 x i8], i32, i32, [4 x i8], ptr, i8, [7 x i8] }>
%"class.bParse::bFile" = type <{ ptr, [7 x i8], i8, ptr, i32, i32, %class.b3HashMap, i32, [4 x i8], ptr, ptr, %class.b3AlignedObjectArray.4, %class.b3AlignedObjectArray.4, %class.b3AlignedObjectArray.6, %class.b3HashMap.8, %class.b3HashMap, i32, [4 x i8] }>

@.str.3 = private unnamed_addr constant [3 x i8] c"wb\00", align 1
@.str.4 = private unnamed_addr constant [40 x i8] c"Error: cannot open file %s for writing\0A\00", align 1

; Function Attrs: mustprogress uwtable
define dso_local noundef i32 @_ZN6bParse12b3BulletFile5writeEPKcb(ptr noundef nonnull align 8 dereferenceable(840) %0, ptr noundef %1, i1 noundef zeroext %2) unnamed_addr #0 align 2 {
  %4 = alloca i32, align 4
  %5 = alloca ptr, align 8
  %6 = alloca ptr, align 8
  %7 = alloca i8, align 1
  %8 = alloca ptr, align 8
  %9 = alloca [12 x i8], align 1
  %10 = alloca i32, align 4
  %11 = alloca i32, align 4
  store ptr %0, ptr %5, align 8, !tbaa !4
  store ptr %1, ptr %6, align 8, !tbaa !41
  %12 = zext i1 %2 to i8
  store i8 %12, ptr %7, align 1, !tbaa !47
  %13 = load ptr, ptr %5, align 8
  call void @llvm.lifetime.start.p0(i64 8, ptr %8) #13
  %14 = load ptr, ptr %6, align 8, !tbaa !41
  %15 = call noalias ptr @fopen(ptr noundef %14, ptr noundef @.str.3)
  store ptr %15, ptr %8, align 8, !tbaa !76
  %16 = load ptr, ptr %8, align 8, !tbaa !76
  %17 = icmp ne ptr %16, null
  br i1 %17, label %18, label %51

18:                                               ; preds = %3
  call void @llvm.lifetime.start.p0(i64 12, ptr %9) #13
  %19 = getelementptr inbounds [12 x i8], ptr %9, i64 0, i64 0
  %20 = getelementptr inbounds nuw %"class.bParse::bFile", ptr %13, i32 0, i32 1
  %21 = getelementptr inbounds [7 x i8], ptr %20, i64 0, i64 0
  call void @llvm.memcpy.p0.p0.i64(ptr align 1 %19, ptr align 8 %21, i64 7, i1 false)
  call void @llvm.lifetime.start.p0(i64 4, ptr %10) #13
  store i32 1, ptr %10, align 4, !tbaa !36
  %22 = getelementptr inbounds i8, ptr %10, i64 0
  %23 = load i8, ptr %22, align 4, !tbaa !65
  %24 = sext i8 %23 to i32
  store i32 %24, ptr %10, align 4, !tbaa !36
  %25 = load i32, ptr %10, align 4, !tbaa !36
  %26 = icmp ne i32 %25, 0
  br i1 %26, label %27, label %29

27:                                               ; preds = %18
  %28 = getelementptr inbounds [12 x i8], ptr %9, i64 0, i64 7
  store i8 95, ptr %28, align 1, !tbaa !65
  br label %31

29:                                               ; preds = %18
  %30 = getelementptr inbounds [12 x i8], ptr %9, i64 0, i64 7
  store i8 45, ptr %30, align 1, !tbaa !65
  br label %31

31:                                               ; preds = %29, %27
  %32 = getelementptr inbounds [12 x i8], ptr %9, i64 0, i64 8
  store i8 86, ptr %32, align 1, !tbaa !65
  %33 = getelementptr inbounds [12 x i8], ptr %9, i64 0, i64 9
  store i8 50, ptr %33, align 1, !tbaa !65
  %34 = getelementptr inbounds [12 x i8], ptr %9, i64 0, i64 10
  store i8 55, ptr %34, align 1, !tbaa !65
  %35 = getelementptr inbounds [12 x i8], ptr %9, i64 0, i64 11
  store i8 53, ptr %35, align 1, !tbaa !65
  %36 = getelementptr inbounds [12 x i8], ptr %9, i64 0, i64 0
  %37 = load ptr, ptr %8, align 8, !tbaa !76
  %38 = call i64 @fwrite(ptr noundef %36, i64 noundef 12, i64 noundef 1, ptr noundef %37)
  %39 = load ptr, ptr %8, align 8, !tbaa !76
  %40 = load i8, ptr %7, align 1, !tbaa !47, !range !52, !noundef !53
  %41 = trunc i8 %40 to i1
  %42 = load ptr, ptr %13, align 8, !tbaa !9
  %43 = getelementptr inbounds ptr, ptr %42, i64 7
  %44 = load ptr, ptr %43, align 8
  call void %44(ptr noundef nonnull align 8 dereferenceable(540) %13, ptr noundef %39, i1 noundef zeroext %41)
  %45 = load ptr, ptr %8, align 8, !tbaa !76
  %46 = load ptr, ptr %13, align 8, !tbaa !9
  %47 = getelementptr inbounds ptr, ptr %46, i64 8
  %48 = load ptr, ptr %47, align 8
  call void %48(ptr noundef nonnull align 8 dereferenceable(840) %13, ptr noundef %45)
  %49 = load ptr, ptr %8, align 8, !tbaa !76
  %50 = call i32 @fclose(ptr noundef %49)
  call void @llvm.lifetime.end.p0(i64 4, ptr %10) #13
  call void @llvm.lifetime.end.p0(i64 12, ptr %9) #13
  br label %54

51:                                               ; preds = %3
  %52 = load ptr, ptr %6, align 8, !tbaa !41
  %53 = call i32 (ptr, ...) @printf(ptr noundef @.str.4, ptr noundef %52)
  store i32 0, ptr %4, align 4
  store i32 1, ptr %11, align 4
  br label %55

54:                                               ; preds = %31
  store i32 1, ptr %4, align 4
  store i32 1, ptr %11, align 4
  br label %55

55:                                               ; preds = %54, %51
  call void @llvm.lifetime.end.p0(i64 8, ptr %8) #13
  %56 = load i32, ptr %4, align 4
  ret i32 %56
}