; Function Attrs: mustprogress uwtable
define dso_local noundef range(i32 0, 2) i32 @_ZN6bParse12b3BulletFile5writeEPKcb(ptr noundef nonnull align 8 dereferenceable(840) %0, ptr noundef %1, i1 noundef zeroext %2) unnamed_addr #0 align 2 {
  %4 = alloca [12 x i8], align 1
  %5 = tail call noalias ptr @fopen(ptr noundef %1, ptr noundef nonnull @.str.3)
  %.not = icmp eq ptr %5, null
  br i1 %.not, label %21, label %6

6:                                                ; preds = %3
  call void @llvm.lifetime.start.p0(i64 12, ptr nonnull %4) #17
  %7 = getelementptr inbounds nuw i8, ptr %0, i64 8
  call void @llvm.memcpy.p0.p0.i64(ptr noundef nonnull align 1 dereferenceable(7) %4, ptr noundef nonnull align 8 dereferenceable(7) %7, i64 7, i1 false)
  %8 = getelementptr inbounds nuw i8, ptr %4, i64 7
  store i8 95, ptr %8, align 1, !tbaa !55
  %9 = getelementptr inbounds nuw i8, ptr %4, i64 8
  store i8 86, ptr %9, align 1, !tbaa !55
  %10 = getelementptr inbounds nuw i8, ptr %4, i64 9
  store i8 50, ptr %10, align 1, !tbaa !55
  %11 = getelementptr inbounds nuw i8, ptr %4, i64 10
  store i8 55, ptr %11, align 1, !tbaa !55
  %12 = getelementptr inbounds nuw i8, ptr %4, i64 11
  store i8 53, ptr %12, align 1, !tbaa !55
  %13 = call i64 @fwrite(ptr noundef nonnull %4, i64 noundef 12, i64 noundef 1, ptr noundef nonnull %5)
  %14 = load ptr, ptr %0, align 8, !tbaa !4
  %15 = getelementptr inbounds nuw i8, ptr %14, i64 56
  %16 = load ptr, ptr %15, align 8
  tail call void %16(ptr noundef nonnull align 8 dereferenceable(540) %0, ptr noundef nonnull %5, i1 noundef zeroext %2)
  %17 = load ptr, ptr %0, align 8, !tbaa !4
  %18 = getelementptr inbounds nuw i8, ptr %17, i64 64
  %19 = load ptr, ptr %18, align 8
  tail call void %19(ptr noundef nonnull align 8 dereferenceable(840) %0, ptr noundef nonnull %5)
  %20 = tail call i32 @fclose(ptr noundef nonnull %5)
  call void @llvm.lifetime.end.p0(i64 12, ptr nonnull %4) #17
  br label %23

21:                                               ; preds = %3
  %22 = tail call i32 (ptr, ...) @printf(ptr noundef nonnull dereferenceable(1) @.str.4, ptr noundef %1)
  br label %23

23:                                               ; preds = %6, %21
  %.0 = phi i32 [ 1, %6 ], [ 0, %21 ]
  ret i32 %.0
}